target datalayout = "e-m:e-p270:32:32-p271:32:32-p272:64:64-i64:64-i128:128-f80:128-n8:16:32:64-S128"
target triple = "x86_64-pc-linux-gnu"

%class.FactUnion = type <{ %class.Fact.base, [4 x i8], ptr, i32, [4 x i8] }>
%class.Fact.base = type <{ ptr, i32 }>
%"struct.std::_Vector_base.13" = type { %"struct.std::_Vector_base<const Variable *, std::allocator<const Variable *>>::_Vector_impl" }
%"struct.std::_Vector_base<const Variable *, std::allocator<const Variable *>>::_Vector_impl" = type { %"struct.std::_Vector_base<const Variable *, std::allocator<const Variable *>>::_Vector_impl_data" }
%"struct.std::_Vector_base<const Variable *, std::allocator<const Variable *>>::_Vector_impl_data" = type { ptr, ptr, ptr }

@_ZTI4Fact = external constant ptr
@_ZTI9FactUnion = dso_local constant { ptr, ptr, ptr } { ptr getelementptr inbounds (ptr, ptr @_ZTVN10__cxxabiv120__si_class_type_infoE, i64 2), ptr @_ZTS9FactUnion, ptr @_ZTI4Fact }, align 8
@_ZN9FactUnionC1EPK8Variable = dso_local unnamed_addr alias void (ptr, ptr), ptr @_ZN9FactUnionC2EPK8Variable

; Function Attrs: mustprogress nounwind uwtable
define linkonce_odr dso_local void @_ZN9FactUnion7set_varEPK8Variable(ptr noundef nonnull align 8 dereferenceable(28) %0, ptr noundef %1) #5 comdat align 2 {
  %3 = alloca ptr, align 8
  %4 = alloca ptr, align 8
  store ptr %0, ptr %3, align 8, !tbaa !4
  store ptr %1, ptr %4, align 8, !tbaa !9
  %5 = load ptr, ptr %3, align 8
  %6 = load ptr, ptr %4, align 8, !tbaa !9
  %7 = getelementptr inbounds nuw %class.FactUnion, ptr %5, i32 0, i32 2
  store ptr %6, ptr %7, align 8, !tbaa !13
  ret void
}

; Function Attrs: mustprogress nounwind uwtable
define linkonce_odr dso_local noundef nonnull align 8 dereferenceable(8) ptr @_ZNKSt6vectorIPK8VariableSaIS2_EEixEm(ptr noundef nonnull align 8 dereferenceable(24) %0, i64 noundef %1) #5 comdat align 2 {
  %3 = alloca ptr, align 8
  %4 = alloca i64, align 8
  store ptr %0, ptr %3, align 8, !tbaa !48
  store i64 %1, ptr %4, align 8, !tbaa !44
  %5 = load ptr, ptr %3, align 8
  %6 = getelementptr inbounds nuw %"struct.std::_Vector_base.13", ptr %5, i32 0, i32 0
  %7 = getelementptr inbounds nuw %"struct.std::_Vector_base<const Variable *, std::allocator<const Variable *>>::_Vector_impl_data", ptr %6, i32 0, i32 0
  %8 = load ptr, ptr %7, align 8, !tbaa !91
  %9 = load i64, ptr %4, align 8, !tbaa !44
  %10 = getelementptr inbounds nuw ptr, ptr %8, i64 %9
  ret ptr %10
}

; Function Attrs: mustprogress nounwind uwtable
define linkonce_odr dso_local noundef i64 @_ZNKSt6vectorIPK8VariableSaIS2_EE4sizeEv(ptr noundef nonnull align 8 dereferenceable(24) %0) #5 comdat align 2 {
  %2 = alloca ptr, align 8
  store ptr %0, ptr %2, align 8, !tbaa !48
  %3 = load ptr, ptr %2, align 8
  %4 = getelementptr inbounds nuw %"struct.std::_Vector_base.13", ptr %3, i32 0, i32 0
  %5 = getelementptr inbounds nuw %"struct.std::_Vector_base<const Variable *, std::allocator<const Variable *>>::_Vector_impl_data", ptr %4, i32 0, i32 1
  %6 = load ptr, ptr %5, align 8, !tbaa !90
  %7 = getelementptr inbounds nuw %"struct.std::_Vector_base.13", ptr %3, i32 0, i32 0
  %8 = getelementptr inbounds nuw %"struct.std::_Vector_base<const Variable *, std::allocator<const Variable *>>::_Vector_impl_data", ptr %7, i32 0, i32 0
  %9 = load ptr, ptr %8, align 8, !tbaa !91
  %10 = ptrtoint ptr %6 to i64
  %11 = ptrtoint ptr %9 to i64
  %12 = sub i64 %10, %11
  %13 = sdiv exact i64 %12, 8
  ret i64 %13
}

; Function Attrs: mustprogress uwtable
define dso_local noundef ptr @_ZNK9FactUnion14join_var_factsERKSt6vectorIPK4FactSaIS3_EERKS0_IPK8VariableSaISA_EE(ptr noundef nonnull align 8 dereferenceable(28) %0, ptr noundef nonnull align 8 dereferenceable(24) %1, ptr noundef nonnull align 8 dereferenceable(24) %2) unnamed_addr #4 align 2 personality ptr @__gxx_personality_v0 {
  %4 = alloca ptr, align 8
  %5 = alloca ptr, align 8
  %6 = alloca ptr, align 8
  %7 = alloca ptr, align 8
  %8 = alloca i64, align 8
  %9 = alloca %class.FactUnion, align 8
  %10 = alloca ptr, align 8
  %11 = alloca ptr, align 8
  %12 = alloca i32, align 4
  store ptr %0, ptr %4, align 8, !tbaa !4
  store ptr %1, ptr %5, align 8, !tbaa !46
  store ptr %2, ptr %6, align 8, !tbaa !48
  call void @llvm.lifetime.start.p0(i64 8, ptr %7) #3
  store ptr null, ptr %7, align 8, !tbaa !4
  call void @llvm.lifetime.start.p0(i64 8, ptr %8) #3
  store i64 0, ptr %8, align 8, !tbaa !44
  br label %13

13:                                               ; preds = %73, %3
  %14 = load i64, ptr %8, align 8, !tbaa !44
  %15 = load ptr, ptr %6, align 8, !tbaa !48
  %16 = call noundef i64 @_ZNKSt6vectorIPK8VariableSaIS2_EE4sizeEv(ptr noundef nonnull align 8 dereferenceable(24) %15) #3
  %17 = icmp ult i64 %14, %16
  br i1 %17, label %19, label %18

18:                                               ; preds = %13
  call void @llvm.lifetime.end.p0(i64 8, ptr %8) #3
  br label %76

19:                                               ; preds = %13
  call void @llvm.lifetime.start.p0(i64 32, ptr %9) #3
  %20 = load ptr, ptr %6, align 8, !tbaa !48
  %21 = load i64, ptr %8, align 8, !tbaa !44
  %22 = call noundef nonnull align 8 dereferenceable(8) ptr @_ZNKSt6vectorIPK8VariableSaIS2_EEixEm(ptr noundef nonnull align 8 dereferenceable(24) %20, i64 noundef %21) #3
  %23 = load ptr, ptr %22, align 8, !tbaa !9
  call void @_ZN9FactUnionC1EPK8Variable(ptr noundef nonnull align 8 dereferenceable(28) %9, ptr noundef %23)
  call void @llvm.lifetime.start.p0(i64 8, ptr %10) #3
  %24 = load ptr, ptr %5, align 8, !tbaa !46
  %25 = invoke noundef ptr @_Z17find_related_factRKSt6vectorIPK4FactSaIS2_EES2_(ptr noundef nonnull align 8 dereferenceable(24) %24, ptr noundef %9)
          to label %26 unwind label %30

26:                                               ; preds = %19
  %27 = icmp eq ptr %25, null
  br i1 %27, label %34, label %28

28:                                               ; preds = %26
  %29 = call ptr @__dynamic_cast(ptr %25, ptr @_ZTI4Fact, ptr @_ZTI9FactUnion, i64 0) #3
  br label %35

30:                                               ; preds = %63, %62, %55, %42, %19
  %31 = landingpad { ptr, i32 }
          cleanup
  %32 = extractvalue { ptr, i32 } %31, 0
  store ptr %32, ptr %11, align 8
  %33 = extractvalue { ptr, i32 } %31, 1
  store i32 %33, ptr %12, align 4
  call void @llvm.lifetime.end.p0(i64 8, ptr %10) #3
  call void @_ZN4FactD2Ev(ptr noundef nonnull align 8 dereferenceable(28) %9) #3
  call void @llvm.lifetime.end.p0(i64 32, ptr %9) #3
  call void @llvm.lifetime.end.p0(i64 8, ptr %8) #3
  call void @llvm.lifetime.end.p0(i64 8, ptr %7) #3
  br label %78

34:                                               ; preds = %26
  br label %35

35:                                               ; preds = %34, %28
  %36 = phi ptr [ %29, %28 ], [ null, %34 ]
  store ptr %36, ptr %10, align 8, !tbaa !4
  %37 = load ptr, ptr %10, align 8, !tbaa !4
  %38 = icmp ne ptr %37, null
  br i1 %38, label %39, label %72

39:                                               ; preds = %35
  %40 = load ptr, ptr %7, align 8, !tbaa !4
  %41 = icmp eq ptr %40, null
  br i1 %41, label %42, label %55

42:                                               ; preds = %39
  %43 = load ptr, ptr %10, align 8, !tbaa !4
  %44 = load ptr, ptr %43, align 8, !tbaa !11
  %45 = getelementptr inbounds ptr, ptr %44, i64 2
  %46 = load ptr, ptr %45, align 8
  %47 = invoke noundef ptr %46(ptr noundef nonnull align 8 dereferenceable(28) %43)
          to label %48 unwind label %30

48:                                               ; preds = %42
  %49 = icmp eq ptr %47, null
  br i1 %49, label %52, label %50

50:                                               ; preds = %48
  %51 = call ptr @__dynamic_cast(ptr %47, ptr @_ZTI4Fact, ptr @_ZTI9FactUnion, i64 0) #3
  br label %53

52:                                               ; preds = %48
  br label %53

53:                                               ; preds = %52, %50
  %54 = phi ptr [ %51, %50 ], [ null, %52 ]
  store ptr %54, ptr %7, align 8, !tbaa !4
  br label %71

55:                                               ; preds = %39
  %56 = load ptr, ptr %7, align 8, !tbaa !4
  %57 = load ptr, ptr %10, align 8, !tbaa !4
  %58 = load ptr, ptr %57, align 8, !tbaa !11
  %59 = getelementptr inbounds ptr, ptr %58, i64 15
  %60 = load ptr, ptr %59, align 8
  %61 = invoke noundef ptr %60(ptr noundef nonnull align 8 dereferenceable(28) %57)
          to label %62 unwind label %30

62:                                               ; preds = %55
  invoke void @_ZN9FactUnion7set_varEPK8Variable(ptr noundef nonnull align 8 dereferenceable(28) %56, ptr noundef %61)
          to label %63 unwind label %30

63:                                               ; preds = %62
  %64 = load ptr, ptr %7, align 8, !tbaa !4
  %65 = load ptr, ptr %10, align 8, !tbaa !4
  %66 = load ptr, ptr %64, align 8, !tbaa !11
  %67 = getelementptr inbounds ptr, ptr %66, i64 3
  %68 = load ptr, ptr %67, align 8
  %69 = invoke noundef i32 %68(ptr noundef nonnull align 8 dereferenceable(28) %64, ptr noundef nonnull align 8 dereferenceable(12) %65)
          to label %70 unwind label %30

70:                                               ; preds = %63
  br label %71

71:                                               ; preds = %70, %53
  br label %72

72:                                               ; preds = %71, %35
  call void @llvm.lifetime.end.p0(i64 8, ptr %10) #3
  call void @_ZN4FactD2Ev(ptr noundef nonnull align 8 dereferenceable(28) %9) #3
  call void @llvm.lifetime.end.p0(i64 32, ptr %9) #3
  br label %73

73:                                               ; preds = %72
  %74 = load i64, ptr %8, align 8, !tbaa !44
  %75 = add i64 %74, 1
  store i64 %75, ptr %8, align 8, !tbaa !44
  br label %13, !llvm.loop !143

76:                                               ; preds = %18
  %77 = load ptr, ptr %7, align 8, !tbaa !4
  call void @llvm.lifetime.end.p0(i64 8, ptr %7) #3
  ret ptr %77

78:                                               ; preds = %30
  %79 = load ptr, ptr %11, align 8
  %80 = load i32, ptr %12, align 4
  %81 = insertvalue { ptr, i32 } poison, ptr %79, 0
  %82 = insertvalue { ptr, i32 } %81, i32 %80, 1
  resume { ptr, i32 } %82
}