; Function Attrs: mustprogress uwtable
define dso_local noundef ptr @_ZNK9FactUnion14join_var_factsERKSt6vectorIPK4FactSaIS3_EERKS0_IPK8VariableSaISA_EE(ptr nonnull readnone align 8 captures(none) %0, ptr noundef nonnull align 8 dereferenceable(24) %1, ptr noundef nonnull readonly align 8 captures(none) dereferenceable(24) %2) unnamed_addr #3 align 2 personality ptr @__gxx_personality_v0 {
  %4 = alloca %class.FactUnion, align 8
  %5 = getelementptr inbounds nuw i8, ptr %2, i64 8
  %6 = load ptr, ptr %5, align 8, !tbaa !78
  %7 = load ptr, ptr %2, align 8, !tbaa !45
  %.not23 = icmp eq ptr %6, %7
  br i1 %.not23, label %._crit_edge, label %.lr.ph

.lr.ph:                                           ; preds = %3
  %8 = getelementptr inbounds nuw i8, ptr %4, i64 16
  %9 = getelementptr inbounds nuw i8, ptr %4, i64 24
  br label %10

._crit_edge:                                      ; preds = %.thread, %3
  %.0.lcssa = phi ptr [ null, %3 ], [ %.1, %.thread ]
  ret ptr %.0.lcssa

10:                                               ; preds = %.lr.ph, %.thread
  %11 = phi ptr [ %7, %.lr.ph ], [ %44, %.thread ]
  %.022 = phi ptr [ null, %.lr.ph ], [ %.1, %.thread ]
  %.01521 = phi i64 [ 0, %.lr.ph ], [ %42, %.thread ]
  call void @llvm.lifetime.start.p0(i64 32, ptr nonnull %4) #15
  %12 = getelementptr inbounds nuw ptr, ptr %11, i64 %.01521
  %13 = load ptr, ptr %12, align 8, !tbaa !19
  call void @_ZN4FactC2E13eFactCategory(ptr noundef nonnull align 8 dereferenceable(28) %4, i32 noundef 2)
  store ptr getelementptr inbounds nuw inrange(-16, 152) (i8, ptr @_ZTV9FactUnion, i64 16), ptr %4, align 8, !tbaa !4
  store ptr %13, ptr %8, align 8, !tbaa !7
  store i32 -2, ptr %9, align 8, !tbaa !15
  %14 = invoke noundef ptr @_Z17find_related_factRKSt6vectorIPK4FactSaIS2_EES2_(ptr noundef nonnull align 8 dereferenceable(24) %1, ptr noundef nonnull %4)
          to label %15 unwind label %17

15:                                               ; preds = %10
  %16 = icmp eq ptr %14, null
  br i1 %16, label %.thread, label %19

17:                                               ; preds = %36, %32, %24, %10
  %18 = landingpad { ptr, i32 }
          cleanup
  call void @_ZN4FactD2Ev(ptr noundef nonnull align 8 dereferenceable(28) %4) #15
  call void @llvm.lifetime.end.p0(i64 32, ptr nonnull %4) #15
  resume { ptr, i32 } %18

19:                                               ; preds = %15
  %20 = call ptr @__dynamic_cast(ptr nonnull %14, ptr nonnull @_ZTI4Fact, ptr nonnull @_ZTI9FactUnion, i64 0) #15
  %.not = icmp eq ptr %20, null
  br i1 %.not, label %.thread, label %21

21:                                               ; preds = %19
  %22 = icmp eq ptr %.022, null
  %23 = load ptr, ptr %20, align 8, !tbaa !4
  br i1 %22, label %24, label %32

24:                                               ; preds = %21
  %25 = getelementptr inbounds nuw i8, ptr %23, i64 16
  %26 = load ptr, ptr %25, align 8
  %27 = invoke noundef ptr %26(ptr noundef nonnull align 8 dereferenceable(28) %20)
          to label %28 unwind label %17

28:                                               ; preds = %24
  %29 = icmp eq ptr %27, null
  br i1 %29, label %.thread, label %30

30:                                               ; preds = %28
  %31 = call ptr @__dynamic_cast(ptr nonnull %27, ptr nonnull @_ZTI4Fact, ptr nonnull @_ZTI9FactUnion, i64 0) #15
  br label %.thread

32:                                               ; preds = %21
  %33 = getelementptr inbounds nuw i8, ptr %23, i64 120
  %34 = load ptr, ptr %33, align 8
  %35 = invoke noundef ptr %34(ptr noundef nonnull align 8 dereferenceable(28) %20)
          to label %36 unwind label %17

36:                                               ; preds = %32
  %37 = getelementptr inbounds nuw i8, ptr %.022, i64 16
  store ptr %35, ptr %37, align 8, !tbaa !7
  %38 = load ptr, ptr %.022, align 8, !tbaa !4
  %39 = getelementptr inbounds nuw i8, ptr %38, i64 24
  %40 = load ptr, ptr %39, align 8
  %41 = invoke noundef i32 %40(ptr noundef nonnull align 8 dereferenceable(28) %.022, ptr noundef nonnull align 8 dereferenceable(12) %20)
          to label %.thread unwind label %17

.thread:                                          ; preds = %15, %30, %28, %36, %19
  %.1 = phi ptr [ %.022, %36 ], [ %.022, %19 ], [ %31, %30 ], [ null, %28 ], [ %.022, %15 ]
  call void @_ZN4FactD2Ev(ptr noundef nonnull align 8 dereferenceable(28) %4) #15
  call void @llvm.lifetime.end.p0(i64 32, ptr nonnull %4) #15
  %42 = add nuw i64 %.01521, 1
  %43 = load ptr, ptr %5, align 8, !tbaa !78
  %44 = load ptr, ptr %2, align 8, !tbaa !45
  %45 = ptrtoint ptr %43 to i64
  %46 = ptrtoint ptr %44 to i64
  %47 = sub i64 %45, %46
  %48 = ashr exact i64 %47, 3
  %49 = icmp ult i64 %42, %48
  br i1 %49, label %10, label %._crit_edge, !llvm.loop !120
}